target datalayout = "e-m:e-p270:32:32-p271:32:32-p272:64:64-i64:64-i128:128-f80:128-n8:16:32:64-S128"
target triple = "x86_64-pc-linux-gnu"

%struct.bio_poll_descriptor_st = type { i32, %union.anon }
%union.anon = type { ptr }

@.str.1 = private unnamed_addr constant [37 x i8] c"../openssl/test/helpers/ssltestlib.c\00", align 1
@.str.41 = private unnamed_addr constant [31 x i8] c"serverssl = SSL_new(serverctx)\00", align 1
@.str.42 = private unnamed_addr constant [31 x i8] c"clientssl = SSL_new(clientctx)\00", align 1
@.str.43 = private unnamed_addr constant [46 x i8] c"s_to_c_bio = BIO_new_socket(sfd, BIO_NOCLOSE)\00", align 1
@.str.44 = private unnamed_addr constant [46 x i8] c"c_to_s_bio = BIO_new_socket(cfd, BIO_NOCLOSE)\00", align 1
@.str.45 = private unnamed_addr constant [104 x i8] c"SSL_get_rpoll_descriptor(clientssl, &rdesc) || !TEST_false(SSL_get_wpoll_descriptor(clientssl, &wdesc))\00", align 1
@.str.46 = private unnamed_addr constant [44 x i8] c"SSL_get_wpoll_descriptor(clientssl, &wdesc)\00", align 1
@.str.47 = private unnamed_addr constant [44 x i8] c"SSL_get_rpoll_descriptor(clientssl, &rdesc)\00", align 1
@.str.48 = private unnamed_addr constant [11 x i8] c"rdesc.type\00", align 1
@.str.49 = private unnamed_addr constant [33 x i8] c"BIO_POLL_DESCRIPTOR_TYPE_SOCK_FD\00", align 1
@.str.50 = private unnamed_addr constant [11 x i8] c"wdesc.type\00", align 1
@.str.51 = private unnamed_addr constant [15 x i8] c"rdesc.value.fd\00", align 1
@.str.52 = private unnamed_addr constant [4 x i8] c"cfd\00", align 1
@.str.53 = private unnamed_addr constant [15 x i8] c"wdesc.value.fd\00", align 1
@.str.54 = private unnamed_addr constant [44 x i8] c"SSL_get_rpoll_descriptor(serverssl, &rdesc)\00", align 1
@.str.55 = private unnamed_addr constant [44 x i8] c"SSL_get_wpoll_descriptor(serverssl, &wdesc)\00", align 1
@.str.56 = private unnamed_addr constant [4 x i8] c"sfd\00", align 1

; Function Attrs: nounwind uwtable
define dso_local i32 @create_ssl_objects2(ptr noundef %0, ptr noundef %1, ptr noundef %2, ptr noundef %3, i32 noundef %4, i32 noundef %5) #0 {
  %7 = alloca i32, align 4
  %8 = alloca ptr, align 8
  %9 = alloca ptr, align 8
  %10 = alloca ptr, align 8
  %11 = alloca ptr, align 8
  %12 = alloca i32, align 4
  %13 = alloca i32, align 4
  %14 = alloca ptr, align 8
  %15 = alloca ptr, align 8
  %16 = alloca ptr, align 8
  %17 = alloca ptr, align 8
  %18 = alloca %struct.bio_poll_descriptor_st, align 8
  %19 = alloca %struct.bio_poll_descriptor_st, align 8
  %20 = alloca i32, align 4
  store ptr %0, ptr %8, align 8, !tbaa !61
  store ptr %1, ptr %9, align 8, !tbaa !61
  store ptr %2, ptr %10, align 8, !tbaa !77
  store ptr %3, ptr %11, align 8, !tbaa !77
  store i32 %4, ptr %12, align 4, !tbaa !13
  store i32 %5, ptr %13, align 4, !tbaa !13
  call void @llvm.lifetime.start.p0(i64 8, ptr %14) #10
  store ptr null, ptr %14, align 8, !tbaa !79
  call void @llvm.lifetime.start.p0(i64 8, ptr %15) #10
  store ptr null, ptr %15, align 8, !tbaa !79
  call void @llvm.lifetime.start.p0(i64 8, ptr %16) #10
  store ptr null, ptr %16, align 8, !tbaa !9
  call void @llvm.lifetime.start.p0(i64 8, ptr %17) #10
  store ptr null, ptr %17, align 8, !tbaa !9
  call void @llvm.lifetime.start.p0(i64 16, ptr %18) #10
  call void @llvm.memset.p0.i64(ptr align 8 %18, i8 0, i64 16, i1 false)
  call void @llvm.lifetime.start.p0(i64 16, ptr %19) #10
  call void @llvm.memset.p0.i64(ptr align 8 %19, i8 0, i64 16, i1 false)
  %21 = load ptr, ptr %10, align 8, !tbaa !77
  %22 = load ptr, ptr %21, align 8, !tbaa !79
  %23 = icmp ne ptr %22, null
  br i1 %23, label %24, label %27

24:                                               ; preds = %6
  %25 = load ptr, ptr %10, align 8, !tbaa !77
  %26 = load ptr, ptr %25, align 8, !tbaa !79
  store ptr %26, ptr %14, align 8, !tbaa !79
  br label %34

27:                                               ; preds = %6
  %28 = load ptr, ptr %8, align 8, !tbaa !61
  %29 = call ptr @SSL_new(ptr noundef %28)
  store ptr %29, ptr %14, align 8, !tbaa !79
  %30 = call i32 @test_ptr(ptr noundef @.str.1, i32 noundef 1098, ptr noundef @.str.41, ptr noundef %29)
  %31 = icmp ne i32 %30, 0
  br i1 %31, label %33, label %32

32:                                               ; preds = %27
  br label %164

33:                                               ; preds = %27
  br label %34

34:                                               ; preds = %33, %24
  %35 = load ptr, ptr %11, align 8, !tbaa !77
  %36 = load ptr, ptr %35, align 8, !tbaa !79
  %37 = icmp ne ptr %36, null
  br i1 %37, label %38, label %41

38:                                               ; preds = %34
  %39 = load ptr, ptr %11, align 8, !tbaa !77
  %40 = load ptr, ptr %39, align 8, !tbaa !79
  store ptr %40, ptr %15, align 8, !tbaa !79
  br label %48

41:                                               ; preds = %34
  %42 = load ptr, ptr %9, align 8, !tbaa !61
  %43 = call ptr @SSL_new(ptr noundef %42)
  store ptr %43, ptr %15, align 8, !tbaa !79
  %44 = call i32 @test_ptr(ptr noundef @.str.1, i32 noundef 1102, ptr noundef @.str.42, ptr noundef %43)
  %45 = icmp ne i32 %44, 0
  br i1 %45, label %47, label %46

46:                                               ; preds = %41
  br label %164

47:                                               ; preds = %41
  br label %48

48:                                               ; preds = %47, %38
  %49 = load i32, ptr %12, align 4, !tbaa !13
  %50 = call ptr @BIO_new_socket(i32 noundef %49, i32 noundef 0)
  store ptr %50, ptr %16, align 8, !tbaa !9
  %51 = call i32 @test_ptr(ptr noundef @.str.1, i32 noundef 1105, ptr noundef @.str.43, ptr noundef %50)
  %52 = icmp ne i32 %51, 0
  br i1 %52, label %53, label %58

53:                                               ; preds = %48
  %54 = load i32, ptr %13, align 4, !tbaa !13
  %55 = call ptr @BIO_new_socket(i32 noundef %54, i32 noundef 0)
  store ptr %55, ptr %17, align 8, !tbaa !9
  %56 = call i32 @test_ptr(ptr noundef @.str.1, i32 noundef 1106, ptr noundef @.str.44, ptr noundef %55)
  %57 = icmp ne i32 %56, 0
  br i1 %57, label %59, label %58

58:                                               ; preds = %53, %48
  br label %164

59:                                               ; preds = %53
  %60 = load ptr, ptr %15, align 8, !tbaa !79
  %61 = call i32 @SSL_get_rpoll_descriptor(ptr noundef %60, ptr noundef %18)
  %62 = icmp ne i32 %61, 0
  br i1 %62, label %71, label %63

63:                                               ; preds = %59
  %64 = load ptr, ptr %15, align 8, !tbaa !79
  %65 = call i32 @SSL_get_wpoll_descriptor(ptr noundef %64, ptr noundef %19)
  %66 = icmp ne i32 %65, 0
  %67 = zext i1 %66 to i32
  %68 = call i32 @test_false(ptr noundef @.str.1, i32 noundef 1110, ptr noundef @.str.46, i32 noundef %67)
  %69 = icmp ne i32 %68, 0
  %70 = xor i1 %69, true
  br label %71

71:                                               ; preds = %63, %59
  %72 = phi i1 [ true, %59 ], [ %70, %63 ]
  %73 = zext i1 %72 to i32
  %74 = icmp ne i32 %73, 0
  %75 = zext i1 %74 to i32
  %76 = call i32 @test_false(ptr noundef @.str.1, i32 noundef 1110, ptr noundef @.str.45, i32 noundef %75)
  %77 = icmp ne i32 %76, 0
  br i1 %77, label %79, label %78

78:                                               ; preds = %71
  br label %164

79:                                               ; preds = %71
  %80 = load ptr, ptr %15, align 8, !tbaa !79
  %81 = load ptr, ptr %17, align 8, !tbaa !9
  %82 = load ptr, ptr %17, align 8, !tbaa !9
  call void @SSL_set_bio(ptr noundef %80, ptr noundef %81, ptr noundef %82)
  %83 = load ptr, ptr %14, align 8, !tbaa !79
  %84 = load ptr, ptr %16, align 8, !tbaa !9
  %85 = load ptr, ptr %16, align 8, !tbaa !9
  call void @SSL_set_bio(ptr noundef %83, ptr noundef %84, ptr noundef %85)
  %86 = load ptr, ptr %15, align 8, !tbaa !79
  %87 = call i32 @SSL_get_rpoll_descriptor(ptr noundef %86, ptr noundef %18)
  %88 = icmp ne i32 %87, 0
  %89 = zext i1 %88 to i32
  %90 = call i32 @test_true(ptr noundef @.str.1, i32 noundef 1116, ptr noundef @.str.47, i32 noundef %89)
  %91 = icmp ne i32 %90, 0
  br i1 %91, label %92, label %121

92:                                               ; preds = %79
  %93 = load ptr, ptr %15, align 8, !tbaa !79
  %94 = call i32 @SSL_get_wpoll_descriptor(ptr noundef %93, ptr noundef %19)
  %95 = icmp ne i32 %94, 0
  %96 = zext i1 %95 to i32
  %97 = call i32 @test_true(ptr noundef @.str.1, i32 noundef 1117, ptr noundef @.str.46, i32 noundef %96)
  %98 = icmp ne i32 %97, 0
  br i1 %98, label %99, label %121

99:                                               ; preds = %92
  %100 = getelementptr inbounds nuw %struct.bio_poll_descriptor_st, ptr %18, i32 0, i32 0
  %101 = load i32, ptr %100, align 8, !tbaa !81
  %102 = call i32 @test_int_eq(ptr noundef @.str.1, i32 noundef 1118, ptr noundef @.str.48, ptr noundef @.str.49, i32 noundef %101, i32 noundef 1)
  %103 = icmp ne i32 %102, 0
  br i1 %103, label %104, label %121

104:                                              ; preds = %99
  %105 = getelementptr inbounds nuw %struct.bio_poll_descriptor_st, ptr %19, i32 0, i32 0
  %106 = load i32, ptr %105, align 8, !tbaa !81
  %107 = call i32 @test_int_eq(ptr noundef @.str.1, i32 noundef 1119, ptr noundef @.str.50, ptr noundef @.str.49, i32 noundef %106, i32 noundef 1)
  %108 = icmp ne i32 %107, 0
  br i1 %108, label %109, label %121

109:                                              ; preds = %104
  %110 = getelementptr inbounds nuw %struct.bio_poll_descriptor_st, ptr %18, i32 0, i32 1
  %111 = load i32, ptr %110, align 8, !tbaa !34
  %112 = load i32, ptr %13, align 4, !tbaa !13
  %113 = call i32 @test_int_eq(ptr noundef @.str.1, i32 noundef 1120, ptr noundef @.str.51, ptr noundef @.str.52, i32 noundef %111, i32 noundef %112)
  %114 = icmp ne i32 %113, 0
  br i1 %114, label %115, label %121

115:                                              ; preds = %109
  %116 = getelementptr inbounds nuw %struct.bio_poll_descriptor_st, ptr %19, i32 0, i32 1
  %117 = load i32, ptr %116, align 8, !tbaa !34
  %118 = load i32, ptr %13, align 4, !tbaa !13
  %119 = call i32 @test_int_eq(ptr noundef @.str.1, i32 noundef 1121, ptr noundef @.str.53, ptr noundef @.str.52, i32 noundef %117, i32 noundef %118)
  %120 = icmp ne i32 %119, 0
  br i1 %120, label %122, label %121

121:                                              ; preds = %115, %109, %104, %99, %92, %79
  br label %164

122:                                              ; preds = %115
  %123 = load ptr, ptr %14, align 8, !tbaa !79
  %124 = call i32 @SSL_get_rpoll_descriptor(ptr noundef %123, ptr noundef %18)
  %125 = icmp ne i32 %124, 0
  %126 = zext i1 %125 to i32
  %127 = call i32 @test_true(ptr noundef @.str.1, i32 noundef 1124, ptr noundef @.str.54, i32 noundef %126)
  %128 = icmp ne i32 %127, 0
  br i1 %128, label %129, label %158

129:                                              ; preds = %122
  %130 = load ptr, ptr %14, align 8, !tbaa !79
  %131 = call i32 @SSL_get_wpoll_descriptor(ptr noundef %130, ptr noundef %19)
  %132 = icmp ne i32 %131, 0
  %133 = zext i1 %132 to i32
  %134 = call i32 @test_true(ptr noundef @.str.1, i32 noundef 1125, ptr noundef @.str.55, i32 noundef %133)
  %135 = icmp ne i32 %134, 0
  br i1 %135, label %136, label %158

136:                                              ; preds = %129
  %137 = getelementptr inbounds nuw %struct.bio_poll_descriptor_st, ptr %18, i32 0, i32 0
  %138 = load i32, ptr %137, align 8, !tbaa !81
  %139 = call i32 @test_int_eq(ptr noundef @.str.1, i32 noundef 1126, ptr noundef @.str.48, ptr noundef @.str.49, i32 noundef %138, i32 noundef 1)
  %140 = icmp ne i32 %139, 0
  br i1 %140, label %141, label %158

141:                                              ; preds = %136
  %142 = getelementptr inbounds nuw %struct.bio_poll_descriptor_st, ptr %19, i32 0, i32 0
  %143 = load i32, ptr %142, align 8, !tbaa !81
  %144 = call i32 @test_int_eq(ptr noundef @.str.1, i32 noundef 1127, ptr noundef @.str.50, ptr noundef @.str.49, i32 noundef %143, i32 noundef 1)
  %145 = icmp ne i32 %144, 0
  br i1 %145, label %146, label %158

146:                                              ; preds = %141
  %147 = getelementptr inbounds nuw %struct.bio_poll_descriptor_st, ptr %18, i32 0, i32 1
  %148 = load i32, ptr %147, align 8, !tbaa !34
  %149 = load i32, ptr %12, align 4, !tbaa !13
  %150 = call i32 @test_int_eq(ptr noundef @.str.1, i32 noundef 1128, ptr noundef @.str.51, ptr noundef @.str.56, i32 noundef %148, i32 noundef %149)
  %151 = icmp ne i32 %150, 0
  br i1 %151, label %152, label %158

152:                                              ; preds = %146
  %153 = getelementptr inbounds nuw %struct.bio_poll_descriptor_st, ptr %19, i32 0, i32 1
  %154 = load i32, ptr %153, align 8, !tbaa !34
  %155 = load i32, ptr %12, align 4, !tbaa !13
  %156 = call i32 @test_int_eq(ptr noundef @.str.1, i32 noundef 1129, ptr noundef @.str.53, ptr noundef @.str.56, i32 noundef %154, i32 noundef %155)
  %157 = icmp ne i32 %156, 0
  br i1 %157, label %159, label %158

158:                                              ; preds = %152, %146, %141, %136, %129, %122
  br label %164

159:                                              ; preds = %152
  %160 = load ptr, ptr %14, align 8, !tbaa !79
  %161 = load ptr, ptr %10, align 8, !tbaa !77
  store ptr %160, ptr %161, align 8, !tbaa !79
  %162 = load ptr, ptr %15, align 8, !tbaa !79
  %163 = load ptr, ptr %11, align 8, !tbaa !77
  store ptr %162, ptr %163, align 8, !tbaa !79
  store i32 1, ptr %7, align 4
  store i32 1, ptr %20, align 4
  br label %171

164:                                              ; preds = %158, %121, %78, %58, %46, %32
  %165 = load ptr, ptr %14, align 8, !tbaa !79
  call void @SSL_free(ptr noundef %165)
  %166 = load ptr, ptr %15, align 8, !tbaa !79
  call void @SSL_free(ptr noundef %166)
  %167 = load ptr, ptr %16, align 8, !tbaa !9
  %168 = call i32 @BIO_free(ptr noundef %167)
  %169 = load ptr, ptr %17, align 8, !tbaa !9
  %170 = call i32 @BIO_free(ptr noundef %169)
  store i32 0, ptr %7, align 4
  store i32 1, ptr %20, align 4
  br label %171

171:                                              ; preds = %164, %159
  call void @llvm.lifetime.end.p0(i64 16, ptr %19) #10
  call void @llvm.lifetime.end.p0(i64 16, ptr %18) #10
  call void @llvm.lifetime.end.p0(i64 8, ptr %17) #10
  call void @llvm.lifetime.end.p0(i64 8, ptr %16) #10
  call void @llvm.lifetime.end.p0(i64 8, ptr %15) #10
  call void @llvm.lifetime.end.p0(i64 8, ptr %14) #10
  %172 = load i32, ptr %7, align 4
  ret i32 %172
}