; Function Attrs: nounwind uwtable
define dso_local range(i32 0, 2) i32 @create_ssl_objects2(ptr noundef %0, ptr noundef %1, ptr noundef captures(none) %2, ptr noundef captures(none) %3, i32 noundef %4, i32 noundef %5) local_unnamed_addr #0 {
  %7 = alloca %struct.bio_poll_descriptor_st, align 8
  %8 = alloca %struct.bio_poll_descriptor_st, align 8
  call void @llvm.lifetime.start.p0(i64 16, ptr nonnull %7) #14
  call void @llvm.memset.p0.i64(ptr noundef nonnull align 8 dereferenceable(16) %7, i8 0, i64 16, i1 false)
  call void @llvm.lifetime.start.p0(i64 16, ptr nonnull %8) #14
  call void @llvm.memset.p0.i64(ptr noundef nonnull align 8 dereferenceable(16) %8, i8 0, i64 16, i1 false)
  %9 = load ptr, ptr %2, align 8, !tbaa !61
  %.not = icmp eq ptr %9, null
  br i1 %.not, label %10, label %13

10:                                               ; preds = %6
  %11 = tail call ptr @SSL_new(ptr noundef %0) #14
  %12 = tail call i32 @test_ptr(ptr noundef nonnull @.str.1, i32 noundef 1098, ptr noundef nonnull @.str.41, ptr noundef %11) #14
  %.not39 = icmp eq i32 %12, 0
  br i1 %.not39, label %82, label %13

13:                                               ; preds = %6, %10
  %.034 = phi ptr [ %11, %10 ], [ %9, %6 ]
  %14 = load ptr, ptr %3, align 8, !tbaa !61
  %.not40 = icmp eq ptr %14, null
  br i1 %.not40, label %15, label %18

15:                                               ; preds = %13
  %16 = tail call ptr @SSL_new(ptr noundef %1) #14
  %17 = tail call i32 @test_ptr(ptr noundef nonnull @.str.1, i32 noundef 1102, ptr noundef nonnull @.str.42, ptr noundef %16) #14
  %.not41 = icmp eq i32 %17, 0
  br i1 %.not41, label %82, label %18

18:                                               ; preds = %13, %15
  %.1 = phi ptr [ %16, %15 ], [ %14, %13 ]
  %19 = tail call ptr @BIO_new_socket(i32 noundef %4, i32 noundef 0) #14
  %20 = tail call i32 @test_ptr(ptr noundef nonnull @.str.1, i32 noundef 1105, ptr noundef nonnull @.str.43, ptr noundef %19) #14
  %.not42 = icmp eq i32 %20, 0
  br i1 %.not42, label %82, label %21

21:                                               ; preds = %18
  %22 = tail call ptr @BIO_new_socket(i32 noundef %5, i32 noundef 0) #14
  %23 = tail call i32 @test_ptr(ptr noundef nonnull @.str.1, i32 noundef 1106, ptr noundef nonnull @.str.44, ptr noundef %22) #14
  %.not43 = icmp eq i32 %23, 0
  br i1 %.not43, label %82, label %24

24:                                               ; preds = %21
  %25 = call i32 @SSL_get_rpoll_descriptor(ptr noundef %.1, ptr noundef nonnull %7) #14
  %.not44 = icmp eq i32 %25, 0
  br i1 %.not44, label %26, label %32

26:                                               ; preds = %24
  %27 = call i32 @SSL_get_wpoll_descriptor(ptr noundef %.1, ptr noundef nonnull %8) #14
  %28 = icmp ne i32 %27, 0
  %29 = zext i1 %28 to i32
  %30 = call i32 @test_false(ptr noundef nonnull @.str.1, i32 noundef 1110, ptr noundef nonnull @.str.46, i32 noundef %29) #14
  %.not45 = icmp eq i32 %30, 0
  %31 = zext i1 %.not45 to i32
  br label %32

32:                                               ; preds = %26, %24
  %33 = phi i32 [ 1, %24 ], [ %31, %26 ]
  %34 = call i32 @test_false(ptr noundef nonnull @.str.1, i32 noundef 1110, ptr noundef nonnull @.str.45, i32 noundef %33) #14
  %.not46 = icmp eq i32 %34, 0
  br i1 %.not46, label %82, label %35

35:                                               ; preds = %32
  call void @SSL_set_bio(ptr noundef %.1, ptr noundef %22, ptr noundef %22) #14
  call void @SSL_set_bio(ptr noundef %.034, ptr noundef %19, ptr noundef %19) #14
  %36 = call i32 @SSL_get_rpoll_descriptor(ptr noundef %.1, ptr noundef nonnull %7) #14
  %37 = icmp ne i32 %36, 0
  %38 = zext i1 %37 to i32
  %39 = call i32 @test_true(ptr noundef nonnull @.str.1, i32 noundef 1116, ptr noundef nonnull @.str.47, i32 noundef %38) #14
  %.not47 = icmp eq i32 %39, 0
  br i1 %.not47, label %82, label %40

40:                                               ; preds = %35
  %41 = call i32 @SSL_get_wpoll_descriptor(ptr noundef %.1, ptr noundef nonnull %8) #14
  %42 = icmp ne i32 %41, 0
  %43 = zext i1 %42 to i32
  %44 = call i32 @test_true(ptr noundef nonnull @.str.1, i32 noundef 1117, ptr noundef nonnull @.str.46, i32 noundef %43) #14
  %.not48 = icmp eq i32 %44, 0
  br i1 %.not48, label %82, label %45

45:                                               ; preds = %40
  %46 = load i32, ptr %7, align 8, !tbaa !63
  %47 = call i32 @test_int_eq(ptr noundef nonnull @.str.1, i32 noundef 1118, ptr noundef nonnull @.str.48, ptr noundef nonnull @.str.49, i32 noundef %46, i32 noundef 1) #14
  %.not49 = icmp eq i32 %47, 0
  br i1 %.not49, label %82, label %48

48:                                               ; preds = %45
  %49 = load i32, ptr %8, align 8, !tbaa !63
  %50 = call i32 @test_int_eq(ptr noundef nonnull @.str.1, i32 noundef 1119, ptr noundef nonnull @.str.50, ptr noundef nonnull @.str.49, i32 noundef %49, i32 noundef 1) #14
  %.not50 = icmp eq i32 %50, 0
  br i1 %.not50, label %82, label %51

51:                                               ; preds = %48
  %52 = getelementptr inbounds nuw i8, ptr %7, i64 8
  %53 = load i32, ptr %52, align 8, !tbaa !9
  %54 = call i32 @test_int_eq(ptr noundef nonnull @.str.1, i32 noundef 1120, ptr noundef nonnull @.str.51, ptr noundef nonnull @.str.52, i32 noundef %53, i32 noundef %5) #14
  %.not51 = icmp eq i32 %54, 0
  br i1 %.not51, label %82, label %55

55:                                               ; preds = %51
  %56 = getelementptr inbounds nuw i8, ptr %8, i64 8
  %57 = load i32, ptr %56, align 8, !tbaa !9
  %58 = call i32 @test_int_eq(ptr noundef nonnull @.str.1, i32 noundef 1121, ptr noundef nonnull @.str.53, ptr noundef nonnull @.str.52, i32 noundef %57, i32 noundef %5) #14
  %.not52 = icmp eq i32 %58, 0
  br i1 %.not52, label %82, label %59

59:                                               ; preds = %55
  %60 = call i32 @SSL_get_rpoll_descriptor(ptr noundef %.034, ptr noundef nonnull %7) #14
  %61 = icmp ne i32 %60, 0
  %62 = zext i1 %61 to i32
  %63 = call i32 @test_true(ptr noundef nonnull @.str.1, i32 noundef 1124, ptr noundef nonnull @.str.54, i32 noundef %62) #14
  %.not53 = icmp eq i32 %63, 0
  br i1 %.not53, label %82, label %64

64:                                               ; preds = %59
  %65 = call i32 @SSL_get_wpoll_descriptor(ptr noundef %.034, ptr noundef nonnull %8) #14
  %66 = icmp ne i32 %65, 0
  %67 = zext i1 %66 to i32
  %68 = call i32 @test_true(ptr noundef nonnull @.str.1, i32 noundef 1125, ptr noundef nonnull @.str.55, i32 noundef %67) #14
  %.not54 = icmp eq i32 %68, 0
  br i1 %.not54, label %82, label %69

69:                                               ; preds = %64
  %70 = load i32, ptr %7, align 8, !tbaa !63
  %71 = call i32 @test_int_eq(ptr noundef nonnull @.str.1, i32 noundef 1126, ptr noundef nonnull @.str.48, ptr noundef nonnull @.str.49, i32 noundef %70, i32 noundef 1) #14
  %.not55 = icmp eq i32 %71, 0
  br i1 %.not55, label %82, label %72

72:                                               ; preds = %69
  %73 = load i32, ptr %8, align 8, !tbaa !63
  %74 = call i32 @test_int_eq(ptr noundef nonnull @.str.1, i32 noundef 1127, ptr noundef nonnull @.str.50, ptr noundef nonnull @.str.49, i32 noundef %73, i32 noundef 1) #14
  %.not56 = icmp eq i32 %74, 0
  br i1 %.not56, label %82, label %75

75:                                               ; preds = %72
  %76 = load i32, ptr %52, align 8, !tbaa !9
  %77 = call i32 @test_int_eq(ptr noundef nonnull @.str.1, i32 noundef 1128, ptr noundef nonnull @.str.51, ptr noundef nonnull @.str.56, i32 noundef %76, i32 noundef %4) #14
  %.not57 = icmp eq i32 %77, 0
  br i1 %.not57, label %82, label %78

78:                                               ; preds = %75
  %79 = load i32, ptr %56, align 8, !tbaa !9
  %80 = call i32 @test_int_eq(ptr noundef nonnull @.str.1, i32 noundef 1129, ptr noundef nonnull @.str.53, ptr noundef nonnull @.str.56, i32 noundef %79, i32 noundef %4) #14
  %.not58 = icmp eq i32 %80, 0
  br i1 %.not58, label %82, label %81

81:                                               ; preds = %78
  store ptr %.034, ptr %2, align 8, !tbaa !61
  store ptr %.1, ptr %3, align 8, !tbaa !61
  br label %85

82:                                               ; preds = %59, %64, %69, %72, %75, %78, %35, %40, %45, %48, %51, %55, %32, %18, %21, %15, %10
  %.135 = phi ptr [ %.034, %78 ], [ %.034, %75 ], [ %.034, %72 ], [ %.034, %69 ], [ %.034, %64 ], [ %.034, %59 ], [ %.034, %55 ], [ %.034, %51 ], [ %.034, %48 ], [ %.034, %45 ], [ %.034, %40 ], [ %.034, %35 ], [ %.034, %32 ], [ %.034, %21 ], [ %.034, %18 ], [ %.034, %15 ], [ %11, %10 ]
  %.033 = phi ptr [ %.1, %78 ], [ %.1, %75 ], [ %.1, %72 ], [ %.1, %69 ], [ %.1, %64 ], [ %.1, %59 ], [ %.1, %55 ], [ %.1, %51 ], [ %.1, %48 ], [ %.1, %45 ], [ %.1, %40 ], [ %.1, %35 ], [ %.1, %32 ], [ %.1, %21 ], [ %.1, %18 ], [ %16, %15 ], [ null, %10 ]
  %.032 = phi ptr [ %19, %78 ], [ %19, %75 ], [ %19, %72 ], [ %19, %69 ], [ %19, %64 ], [ %19, %59 ], [ %19, %55 ], [ %19, %51 ], [ %19, %48 ], [ %19, %45 ], [ %19, %40 ], [ %19, %35 ], [ %19, %32 ], [ %19, %21 ], [ %19, %18 ], [ null, %15 ], [ null, %10 ]
  %.0 = phi ptr [ %22, %78 ], [ %22, %75 ], [ %22, %72 ], [ %22, %69 ], [ %22, %64 ], [ %22, %59 ], [ %22, %55 ], [ %22, %51 ], [ %22, %48 ], [ %22, %45 ], [ %22, %40 ], [ %22, %35 ], [ %22, %32 ], [ %22, %21 ], [ null, %18 ], [ null, %15 ], [ null, %10 ]
  call void @SSL_free(ptr noundef %.135) #14
  call void @SSL_free(ptr noundef %.033) #14
  %83 = call i32 @BIO_free(ptr noundef %.032) #14
  %84 = call i32 @BIO_free(ptr noundef %.0) #14
  br label %85

85:                                               ; preds = %82, %81
  %.036 = phi i32 [ 1, %81 ], [ 0, %82 ]
  call void @llvm.lifetime.end.p0(i64 16, ptr nonnull %8) #14
  call void @llvm.lifetime.end.p0(i64 16, ptr nonnull %7) #14
  ret i32 %.036
}